
./run/referee:     file format elf64-x86-64


Disassembly of section .init:

0000000000001000 <_init>:
    1000:	f3 0f 1e fa          	endbr64 
    1004:	48 83 ec 08          	sub    $0x8,%rsp
    1008:	48 8b 05 d9 3f 00 00 	mov    0x3fd9(%rip),%rax        # 4fe8 <__gmon_start__>
    100f:	48 85 c0             	test   %rax,%rax
    1012:	74 02                	je     1016 <_init+0x16>
    1014:	ff d0                	call   *%rax
    1016:	48 83 c4 08          	add    $0x8,%rsp
    101a:	c3                   	ret    

Disassembly of section .plt:

0000000000001020 <.plt>:
    1020:	ff 35 da 3e 00 00    	push   0x3eda(%rip)        # 4f00 <_GLOBAL_OFFSET_TABLE_+0x8>
    1026:	f2 ff 25 db 3e 00 00 	bnd jmp *0x3edb(%rip)        # 4f08 <_GLOBAL_OFFSET_TABLE_+0x10>
    102d:	0f 1f 00             	nopl   (%rax)
    1030:	f3 0f 1e fa          	endbr64 
    1034:	68 00 00 00 00       	push   $0x0
    1039:	f2 e9 e1 ff ff ff    	bnd jmp 1020 <.plt>
    103f:	90                   	nop
    1040:	f3 0f 1e fa          	endbr64 
    1044:	68 01 00 00 00       	push   $0x1
    1049:	f2 e9 d1 ff ff ff    	bnd jmp 1020 <.plt>
    104f:	90                   	nop
    1050:	f3 0f 1e fa          	endbr64 
    1054:	68 02 00 00 00       	push   $0x2
    1059:	f2 e9 c1 ff ff ff    	bnd jmp 1020 <.plt>
    105f:	90                   	nop
    1060:	f3 0f 1e fa          	endbr64 
    1064:	68 03 00 00 00       	push   $0x3
    1069:	f2 e9 b1 ff ff ff    	bnd jmp 1020 <.plt>
    106f:	90                   	nop
    1070:	f3 0f 1e fa          	endbr64 
    1074:	68 04 00 00 00       	push   $0x4
    1079:	f2 e9 a1 ff ff ff    	bnd jmp 1020 <.plt>
    107f:	90                   	nop
    1080:	f3 0f 1e fa          	endbr64 
    1084:	68 05 00 00 00       	push   $0x5
    1089:	f2 e9 91 ff ff ff    	bnd jmp 1020 <.plt>
    108f:	90                   	nop
    1090:	f3 0f 1e fa          	endbr64 
    1094:	68 06 00 00 00       	push   $0x6
    1099:	f2 e9 81 ff ff ff    	bnd jmp 1020 <.plt>
    109f:	90                   	nop
    10a0:	f3 0f 1e fa          	endbr64 
    10a4:	68 07 00 00 00       	push   $0x7
    10a9:	f2 e9 71 ff ff ff    	bnd jmp 1020 <.plt>
    10af:	90                   	nop
    10b0:	f3 0f 1e fa          	endbr64 
    10b4:	68 08 00 00 00       	push   $0x8
    10b9:	f2 e9 61 ff ff ff    	bnd jmp 1020 <.plt>
    10bf:	90                   	nop
    10c0:	f3 0f 1e fa          	endbr64 
    10c4:	68 09 00 00 00       	push   $0x9
    10c9:	f2 e9 51 ff ff ff    	bnd jmp 1020 <.plt>
    10cf:	90                   	nop
    10d0:	f3 0f 1e fa          	endbr64 
    10d4:	68 0a 00 00 00       	push   $0xa
    10d9:	f2 e9 41 ff ff ff    	bnd jmp 1020 <.plt>
    10df:	90                   	nop
    10e0:	f3 0f 1e fa          	endbr64 
    10e4:	68 0b 00 00 00       	push   $0xb
    10e9:	f2 e9 31 ff ff ff    	bnd jmp 1020 <.plt>
    10ef:	90                   	nop
    10f0:	f3 0f 1e fa          	endbr64 
    10f4:	68 0c 00 00 00       	push   $0xc
    10f9:	f2 e9 21 ff ff ff    	bnd jmp 1020 <.plt>
    10ff:	90                   	nop
    1100:	f3 0f 1e fa          	endbr64 
    1104:	68 0d 00 00 00       	push   $0xd
    1109:	f2 e9 11 ff ff ff    	bnd jmp 1020 <.plt>
    110f:	90                   	nop
    1110:	f3 0f 1e fa          	endbr64 
    1114:	68 0e 00 00 00       	push   $0xe
    1119:	f2 e9 01 ff ff ff    	bnd jmp 1020 <.plt>
    111f:	90                   	nop
    1120:	f3 0f 1e fa          	endbr64 
    1124:	68 0f 00 00 00       	push   $0xf
    1129:	f2 e9 f1 fe ff ff    	bnd jmp 1020 <.plt>
    112f:	90                   	nop
    1130:	f3 0f 1e fa          	endbr64 
    1134:	68 10 00 00 00       	push   $0x10
    1139:	f2 e9 e1 fe ff ff    	bnd jmp 1020 <.plt>
    113f:	90                   	nop
    1140:	f3 0f 1e fa          	endbr64 
    1144:	68 11 00 00 00       	push   $0x11
    1149:	f2 e9 d1 fe ff ff    	bnd jmp 1020 <.plt>
    114f:	90                   	nop
    1150:	f3 0f 1e fa          	endbr64 
    1154:	68 12 00 00 00       	push   $0x12
    1159:	f2 e9 c1 fe ff ff    	bnd jmp 1020 <.plt>
    115f:	90                   	nop
    1160:	f3 0f 1e fa          	endbr64 
    1164:	68 13 00 00 00       	push   $0x13
    1169:	f2 e9 b1 fe ff ff    	bnd jmp 1020 <.plt>
    116f:	90                   	nop
    1170:	f3 0f 1e fa          	endbr64 
    1174:	68 14 00 00 00       	push   $0x14
    1179:	f2 e9 a1 fe ff ff    	bnd jmp 1020 <.plt>
    117f:	90                   	nop
    1180:	f3 0f 1e fa          	endbr64 
    1184:	68 15 00 00 00       	push   $0x15
    1189:	f2 e9 91 fe ff ff    	bnd jmp 1020 <.plt>
    118f:	90                   	nop
    1190:	f3 0f 1e fa          	endbr64 
    1194:	68 16 00 00 00       	push   $0x16
    1199:	f2 e9 81 fe ff ff    	bnd jmp 1020 <.plt>
    119f:	90                   	nop
    11a0:	f3 0f 1e fa          	endbr64 
    11a4:	68 17 00 00 00       	push   $0x17
    11a9:	f2 e9 71 fe ff ff    	bnd jmp 1020 <.plt>
    11af:	90                   	nop
    11b0:	f3 0f 1e fa          	endbr64 
    11b4:	68 18 00 00 00       	push   $0x18
    11b9:	f2 e9 61 fe ff ff    	bnd jmp 1020 <.plt>
    11bf:	90                   	nop

Disassembly of section .plt.got:

00000000000011c0 <__cxa_finalize@plt>:
    11c0:	f3 0f 1e fa          	endbr64 
    11c4:	f2 ff 25 2d 3e 00 00 	bnd jmp *0x3e2d(%rip)        # 4ff8 <__cxa_finalize@GLIBC_2.2.5>
    11cb:	0f 1f 44 00 00       	nopl   0x0(%rax,%rax,1)

Disassembly of section .plt.sec:

00000000000011d0 <semget@plt>:
    11d0:	f3 0f 1e fa          	endbr64 
    11d4:	f2 ff 25 35 3d 00 00 	bnd jmp *0x3d35(%rip)        # 4f10 <semget@GLIBC_2.2.5>
    11db:	0f 1f 44 00 00       	nopl   0x0(%rax,%rax,1)

00000000000011e0 <srandom@plt>:
    11e0:	f3 0f 1e fa          	endbr64 
    11e4:	f2 ff 25 2d 3d 00 00 	bnd jmp *0x3d2d(%rip)        # 4f18 <srandom@GLIBC_2.2.5>
    11eb:	0f 1f 44 00 00       	nopl   0x0(%rax,%rax,1)

00000000000011f0 <strcpy@plt>:
    11f0:	f3 0f 1e fa          	endbr64 
    11f4:	f2 ff 25 25 3d 00 00 	bnd jmp *0x3d25(%rip)        # 4f20 <strcpy@GLIBC_2.2.5>
    11fb:	0f 1f 44 00 00       	nopl   0x0(%rax,%rax,1)

0000000000001200 <shmdt@plt>:
    1200:	f3 0f 1e fa          	endbr64 
    1204:	f2 ff 25 1d 3d 00 00 	bnd jmp *0x3d1d(%rip)        # 4f28 <shmdt@GLIBC_2.2.5>
    120b:	0f 1f 44 00 00       	nopl   0x0(%rax,%rax,1)

0000000000001210 <getpid@plt>:
    1210:	f3 0f 1e fa          	endbr64 
    1214:	f2 ff 25 15 3d 00 00 	bnd jmp *0x3d15(%rip)        # 4f30 <getpid@GLIBC_2.2.5>
    121b:	0f 1f 44 00 00       	nopl   0x0(%rax,%rax,1)

0000000000001220 <fclose@plt>:
    1220:	f3 0f 1e fa          	endbr64 
    1224:	f2 ff 25 0d 3d 00 00 	bnd jmp *0x3d0d(%rip)        # 4f38 <fclose@GLIBC_2.2.5>
    122b:	0f 1f 44 00 00       	nopl   0x0(%rax,%rax,1)

0000000000001230 <__stack_chk_fail@plt>:
    1230:	f3 0f 1e fa          	endbr64 
    1234:	f2 ff 25 05 3d 00 00 	bnd jmp *0x3d05(%rip)        # 4f40 <__stack_chk_fail@GLIBC_2.4>
    123b:	0f 1f 44 00 00       	nopl   0x0(%rax,%rax,1)

0000000000001240 <setbuf@plt>:
    1240:	f3 0f 1e fa          	endbr64 
    1244:	f2 ff 25 fd 3c 00 00 	bnd jmp *0x3cfd(%rip)        # 4f48 <setbuf@GLIBC_2.2.5>
    124b:	0f 1f 44 00 00       	nopl   0x0(%rax,%rax,1)

0000000000001250 <__assert_fail@plt>:
    1250:	f3 0f 1e fa          	endbr64 
    1254:	f2 ff 25 f5 3c 00 00 	bnd jmp *0x3cf5(%rip)        # 4f50 <__assert_fail@GLIBC_2.2.5>
    125b:	0f 1f 44 00 00       	nopl   0x0(%rax,%rax,1)

0000000000001260 <freopen@plt>:
    1260:	f3 0f 1e fa          	endbr64 
    1264:	f2 ff 25 ed 3c 00 00 	bnd jmp *0x3ced(%rip)        # 4f58 <freopen@GLIBC_2.2.5>
    126b:	0f 1f 44 00 00       	nopl   0x0(%rax,%rax,1)

0000000000001270 <fputc@plt>:
    1270:	f3 0f 1e fa          	endbr64 
    1274:	f2 ff 25 e5 3c 00 00 	bnd jmp *0x3ce5(%rip)        # 4f60 <fputc@GLIBC_2.2.5>
    127b:	0f 1f 44 00 00       	nopl   0x0(%rax,%rax,1)

0000000000001280 <fprintf@plt>:
    1280:	f3 0f 1e fa          	endbr64 
    1284:	f2 ff 25 dd 3c 00 00 	bnd jmp *0x3cdd(%rip)        # 4f68 <fprintf@GLIBC_2.2.5>
    128b:	0f 1f 44 00 00       	nopl   0x0(%rax,%rax,1)

0000000000001290 <random@plt>:
    1290:	f3 0f 1e fa          	endbr64 
    1294:	f2 ff 25 d5 3c 00 00 	bnd jmp *0x3cd5(%rip)        # 4f70 <random@GLIBC_2.2.5>
    129b:	0f 1f 44 00 00       	nopl   0x0(%rax,%rax,1)

00000000000012a0 <fflush@plt>:
    12a0:	f3 0f 1e fa          	endbr64 
    12a4:	f2 ff 25 cd 3c 00 00 	bnd jmp *0x3ccd(%rip)        # 4f78 <fflush@GLIBC_2.2.5>
    12ab:	0f 1f 44 00 00       	nopl   0x0(%rax,%rax,1)

00000000000012b0 <shmctl@plt>:
    12b0:	f3 0f 1e fa          	endbr64 
    12b4:	f2 ff 25 c5 3c 00 00 	bnd jmp *0x3cc5(%rip)        # 4f80 <shmctl@GLIBC_2.2.5>
    12bb:	0f 1f 44 00 00       	nopl   0x0(%rax,%rax,1)

00000000000012c0 <fopen@plt>:
    12c0:	f3 0f 1e fa          	endbr64 
    12c4:	f2 ff 25 bd 3c 00 00 	bnd jmp *0x3cbd(%rip)        # 4f88 <fopen@GLIBC_2.2.5>
    12cb:	0f 1f 44 00 00       	nopl   0x0(%rax,%rax,1)

00000000000012d0 <perror@plt>:
    12d0:	f3 0f 1e fa          	endbr64 
    12d4:	f2 ff 25 b5 3c 00 00 	bnd jmp *0x3cb5(%rip)        # 4f90 <perror@GLIBC_2.2.5>
    12db:	0f 1f 44 00 00       	nopl   0x0(%rax,%rax,1)

00000000000012e0 <semctl@plt>:
    12e0:	f3 0f 1e fa          	endbr64 
    12e4:	f2 ff 25 ad 3c 00 00 	bnd jmp *0x3cad(%rip)        # 4f98 <semctl@GLIBC_2.2.5>
    12eb:	0f 1f 44 00 00       	nopl   0x0(%rax,%rax,1)

00000000000012f0 <shmat@plt>:
    12f0:	f3 0f 1e fa          	endbr64 
    12f4:	f2 ff 25 a5 3c 00 00 	bnd jmp *0x3ca5(%rip)        # 4fa0 <shmat@GLIBC_2.2.5>
    12fb:	0f 1f 44 00 00       	nopl   0x0(%rax,%rax,1)

0000000000001300 <shmget@plt>:
    1300:	f3 0f 1e fa          	endbr64 
    1304:	f2 ff 25 9d 3c 00 00 	bnd jmp *0x3c9d(%rip)        # 4fa8 <shmget@GLIBC_2.2.5>
    130b:	0f 1f 44 00 00       	nopl   0x0(%rax,%rax,1)

0000000000001310 <semop@plt>:
    1310:	f3 0f 1e fa          	endbr64 
    1314:	f2 ff 25 95 3c 00 00 	bnd jmp *0x3c95(%rip)        # 4fb0 <semop@GLIBC_2.2.5>
    131b:	0f 1f 44 00 00       	nopl   0x0(%rax,%rax,1)

0000000000001320 <exit@plt>:
    1320:	f3 0f 1e fa          	endbr64 
    1324:	f2 ff 25 8d 3c 00 00 	bnd jmp *0x3c8d(%rip)        # 4fb8 <exit@GLIBC_2.2.5>
    132b:	0f 1f 44 00 00       	nopl   0x0(%rax,%rax,1)

0000000000001330 <fwrite@plt>:
    1330:	f3 0f 1e fa          	endbr64 
    1334:	f2 ff 25 85 3c 00 00 	bnd jmp *0x3c85(%rip)        # 4fc0 <fwrite@GLIBC_2.2.5>
    133b:	0f 1f 44 00 00       	nopl   0x0(%rax,%rax,1)

0000000000001340 <ftok@plt>:
    1340:	f3 0f 1e fa          	endbr64 
    1344:	f2 ff 25 7d 3c 00 00 	bnd jmp *0x3c7d(%rip)        # 4fc8 <ftok@GLIBC_2.2.5>
    134b:	0f 1f 44 00 00       	nopl   0x0(%rax,%rax,1)

0000000000001350 <usleep@plt>:
    1350:	f3 0f 1e fa          	endbr64 
    1354:	f2 ff 25 75 3c 00 00 	bnd jmp *0x3c75(%rip)        # 4fd0 <usleep@GLIBC_2.2.5>
    135b:	0f 1f 44 00 00       	nopl   0x0(%rax,%rax,1)

Disassembly of section .text:

0000000000001360 <_start>:
    1360:	f3 0f 1e fa          	endbr64 
    1364:	31 ed                	xor    %ebp,%ebp
    1366:	49 89 d1             	mov    %rdx,%r9
    1369:	5e                   	pop    %rsi
    136a:	48 89 e2             	mov    %rsp,%rdx
    136d:	48 83 e4 f0          	and    $0xfffffffffffffff0,%rsp
    1371:	50                   	push   %rax
    1372:	54                   	push   %rsp
    1373:	4c 8d 05 06 0e 00 00 	lea    0xe06(%rip),%r8        # 2180 <__libc_csu_fini>
    137a:	48 8d 0d 8f 0d 00 00 	lea    0xd8f(%rip),%rcx        # 2110 <__libc_csu_init>
    1381:	48 8d 3d c1 00 00 00 	lea    0xc1(%rip),%rdi        # 1449 <main>
    1388:	ff 15 52 3c 00 00    	call   *0x3c52(%rip)        # 4fe0 <__libc_start_main@GLIBC_2.2.5>
    138e:	f4                   	hlt    
    138f:	90                   	nop

0000000000001390 <deregister_tm_clones>:
    1390:	48 8d 3d 79 3c 00 00 	lea    0x3c79(%rip),%rdi        # 5010 <__TMC_END__>
    1397:	48 8d 05 72 3c 00 00 	lea    0x3c72(%rip),%rax        # 5010 <__TMC_END__>
    139e:	48 39 f8             	cmp    %rdi,%rax
    13a1:	74 15                	je     13b8 <deregister_tm_clones+0x28>
    13a3:	48 8b 05 2e 3c 00 00 	mov    0x3c2e(%rip),%rax        # 4fd8 <_ITM_deregisterTMCloneTable>
    13aa:	48 85 c0             	test   %rax,%rax
    13ad:	74 09                	je     13b8 <deregister_tm_clones+0x28>
    13af:	ff e0                	jmp    *%rax
    13b1:	0f 1f 80 00 00 00 00 	nopl   0x0(%rax)
    13b8:	c3                   	ret    
    13b9:	0f 1f 80 00 00 00 00 	nopl   0x0(%rax)

00000000000013c0 <register_tm_clones>:
    13c0:	48 8d 3d 49 3c 00 00 	lea    0x3c49(%rip),%rdi        # 5010 <__TMC_END__>
    13c7:	48 8d 35 42 3c 00 00 	lea    0x3c42(%rip),%rsi        # 5010 <__TMC_END__>
    13ce:	48 29 fe             	sub    %rdi,%rsi
    13d1:	48 89 f0             	mov    %rsi,%rax
    13d4:	48 c1 ee 3f          	shr    $0x3f,%rsi
    13d8:	48 c1 f8 03          	sar    $0x3,%rax
    13dc:	48 01 c6             	add    %rax,%rsi
    13df:	48 d1 fe             	sar    %rsi
    13e2:	74 14                	je     13f8 <register_tm_clones+0x38>
    13e4:	48 8b 05 05 3c 00 00 	mov    0x3c05(%rip),%rax        # 4ff0 <_ITM_registerTMCloneTable>
    13eb:	48 85 c0             	test   %rax,%rax
    13ee:	74 08                	je     13f8 <register_tm_clones+0x38>
    13f0:	ff e0                	jmp    *%rax
    13f2:	66 0f 1f 44 00 00    	nopw   0x0(%rax,%rax,1)
    13f8:	c3                   	ret    
    13f9:	0f 1f 80 00 00 00 00 	nopl   0x0(%rax)

0000000000001400 <__do_global_dtors_aux>:
    1400:	f3 0f 1e fa          	endbr64 
    1404:	80 3d 3d 3c 00 00 00 	cmpb   $0x0,0x3c3d(%rip)        # 5048 <completed.8061>
    140b:	75 2b                	jne    1438 <__do_global_dtors_aux+0x38>
    140d:	55                   	push   %rbp
    140e:	48 83 3d e2 3b 00 00 	cmpq   $0x0,0x3be2(%rip)        # 4ff8 <__cxa_finalize@GLIBC_2.2.5>
    1415:	00 
    1416:	48 89 e5             	mov    %rsp,%rbp
    1419:	74 0c                	je     1427 <__do_global_dtors_aux+0x27>
    141b:	48 8b 3d e6 3b 00 00 	mov    0x3be6(%rip),%rdi        # 5008 <__dso_handle>
    1422:	e8 99 fd ff ff       	call   11c0 <__cxa_finalize@plt>
    1427:	e8 64 ff ff ff       	call   1390 <deregister_tm_clones>
    142c:	c6 05 15 3c 00 00 01 	movb   $0x1,0x3c15(%rip)        # 5048 <completed.8061>
    1433:	5d                   	pop    %rbp
    1434:	c3                   	ret    
    1435:	0f 1f 00             	nopl   (%rax)
    1438:	c3                   	ret    
    1439:	0f 1f 80 00 00 00 00 	nopl   0x0(%rax)

0000000000001440 <frame_dummy>:
    1440:	f3 0f 1e fa          	endbr64 
    1444:	e9 77 ff ff ff       	jmp    13c0 <register_tm_clones>

0000000000001449 <main>:
    1449:	f3 0f 1e fa          	endbr64 
    144d:	55                   	push   %rbp
    144e:	48 89 e5             	mov    %rsp,%rbp
    1451:	48 83 ec 20          	sub    $0x20,%rsp
    1455:	89 7d ec             	mov    %edi,-0x14(%rbp)
    1458:	48 89 75 e0          	mov    %rsi,-0x20(%rbp)
    145c:	83 7d ec 04          	cmpl   $0x4,-0x14(%rbp)
    1460:	74 47                	je     14a9 <main+0x60>
    1462:	48 8b 05 d7 3b 00 00 	mov    0x3bd7(%rip),%rax        # 5040 <stderr@GLIBC_2.2.5>
    1469:	48 89 c2             	mov    %rax,%rdx
    146c:	48 8d 35 95 1b 00 00 	lea    0x1b95(%rip),%rsi        # 3008 <_IO_stdin_used+0x8>
    1473:	48 8d 3d 90 1b 00 00 	lea    0x1b90(%rip),%rdi        # 300a <_IO_stdin_used+0xa>
    147a:	e8 e1 fd ff ff       	call   1260 <freopen@plt>
    147f:	48 8b 05 ba 3b 00 00 	mov    0x3bba(%rip),%rax        # 5040 <stderr@GLIBC_2.2.5>
    1486:	48 89 c1             	mov    %rax,%rcx
    1489:	ba 23 00 00 00       	mov    $0x23,%edx
    148e:	be 01 00 00 00       	mov    $0x1,%esi
    1493:	48 8d 3d 7e 1b 00 00 	lea    0x1b7e(%rip),%rdi        # 3018 <_IO_stdin_used+0x18>
    149a:	e8 91 fe ff ff       	call   1330 <fwrite@plt>
    149f:	b8 01 00 00 00       	mov    $0x1,%eax
    14a4:	e9 77 01 00 00       	jmp    1620 <main+0x1d7>
    14a9:	48 8b 45 e0          	mov    -0x20(%rbp),%rax
    14ad:	48 83 c0 10          	add    $0x10,%rax
    14b1:	48 8b 00             	mov    (%rax),%rax
    14b4:	48 89 c6             	mov    %rax,%rsi
    14b7:	48 8d 3d a2 3b 00 00 	lea    0x3ba2(%rip),%rdi        # 5060 <nFic>
    14be:	e8 2d fd ff ff       	call   11f0 <strcpy@plt>
    14c3:	48 8b 15 76 3b 00 00 	mov    0x3b76(%rip),%rdx        # 5040 <stderr@GLIBC_2.2.5>
    14ca:	48 8b 45 e0          	mov    -0x20(%rbp),%rax
    14ce:	48 83 c0 18          	add    $0x18,%rax
    14d2:	48 8b 00             	mov    (%rax),%rax
    14d5:	48 8d 35 60 1b 00 00 	lea    0x1b60(%rip),%rsi        # 303c <_IO_stdin_used+0x3c>
    14dc:	48 89 c7             	mov    %rax,%rdi
    14df:	e8 7c fd ff ff       	call   1260 <freopen@plt>
    14e4:	48 8b 05 55 3b 00 00 	mov    0x3b55(%rip),%rax        # 5040 <stderr@GLIBC_2.2.5>
    14eb:	be 00 00 00 00       	mov    $0x0,%esi
    14f0:	48 89 c7             	mov    %rax,%rdi
    14f3:	e8 48 fd ff ff       	call   1240 <setbuf@plt>
    14f8:	be 61 00 00 00       	mov    $0x61,%esi
    14fd:	48 8d 3d 3a 1b 00 00 	lea    0x1b3a(%rip),%rdi        # 303e <_IO_stdin_used+0x3e>
    1504:	e8 37 fe ff ff       	call   1340 <ftok@plt>
    1509:	89 45 fc             	mov    %eax,-0x4(%rbp)
    150c:	83 7d fc ff          	cmpl   $0xffffffff,-0x4(%rbp)
    1510:	75 16                	jne    1528 <main+0xdf>
    1512:	48 8d 3d 27 1b 00 00 	lea    0x1b27(%rip),%rdi        # 3040 <_IO_stdin_used+0x40>
    1519:	e8 b2 fd ff ff       	call   12d0 <perror@plt>
    151e:	bf 01 00 00 00       	mov    $0x1,%edi
    1523:	e8 f8 fd ff ff       	call   1320 <exit@plt>
    1528:	8b 45 fc             	mov    -0x4(%rbp),%eax
    152b:	89 c7                	mov    %eax,%edi
    152d:	e8 28 06 00 00       	call   1b5a <semConnect>
    1532:	89 05 60 3b 00 00    	mov    %eax,0x3b60(%rip)        # 5098 <semgid>
    1538:	8b 05 5a 3b 00 00    	mov    0x3b5a(%rip),%eax        # 5098 <semgid>
    153e:	83 f8 ff             	cmp    $0xffffffff,%eax
    1541:	75 16                	jne    1559 <main+0x110>
    1543:	48 8d 3d 16 1b 00 00 	lea    0x1b16(%rip),%rdi        # 3060 <_IO_stdin_used+0x60>
    154a:	e8 81 fd ff ff       	call   12d0 <perror@plt>
    154f:	b8 01 00 00 00       	mov    $0x1,%eax
    1554:	e9 c7 00 00 00       	jmp    1620 <main+0x1d7>
    1559:	8b 45 fc             	mov    -0x4(%rbp),%eax
    155c:	89 c7                	mov    %eax,%edi
    155e:	e8 17 05 00 00       	call   1a7a <shmemConnect>
    1563:	89 05 2b 3b 00 00    	mov    %eax,0x3b2b(%rip)        # 5094 <shmid>
    1569:	8b 05 25 3b 00 00    	mov    0x3b25(%rip),%eax        # 5094 <shmid>
    156f:	83 f8 ff             	cmp    $0xffffffff,%eax
    1572:	75 16                	jne    158a <main+0x141>
    1574:	48 8d 3d 15 1b 00 00 	lea    0x1b15(%rip),%rdi        # 3090 <_IO_stdin_used+0x90>
    157b:	e8 50 fd ff ff       	call   12d0 <perror@plt>
    1580:	b8 01 00 00 00       	mov    $0x1,%eax
    1585:	e9 96 00 00 00       	jmp    1620 <main+0x1d7>
    158a:	8b 05 04 3b 00 00    	mov    0x3b04(%rip),%eax        # 5094 <shmid>
    1590:	48 8d 35 09 3b 00 00 	lea    0x3b09(%rip),%rsi        # 50a0 <sh>
    1597:	89 c7                	mov    %eax,%edi
    1599:	e8 26 05 00 00       	call   1ac4 <shmemAttach>
    159e:	83 f8 ff             	cmp    $0xffffffff,%eax
    15a1:	75 13                	jne    15b6 <main+0x16d>
    15a3:	48 8d 3d 16 1b 00 00 	lea    0x1b16(%rip),%rdi        # 30c0 <_IO_stdin_used+0xc0>
    15aa:	e8 21 fd ff ff       	call   12d0 <perror@plt>
    15af:	b8 01 00 00 00       	mov    $0x1,%eax
    15b4:	eb 6a                	jmp    1620 <main+0x1d7>
    15b6:	e8 55 fc ff ff       	call   1210 <getpid@plt>
    15bb:	89 c7                	mov    %eax,%edi
    15bd:	e8 1e fc ff ff       	call   11e0 <srandom@plt>
    15c2:	b8 00 00 00 00       	mov    $0x0,%eax
    15c7:	e8 56 00 00 00       	call   1622 <arrive>
    15cc:	b8 00 00 00 00       	mov    $0x0,%eax
    15d1:	e8 21 01 00 00       	call   16f7 <waitForTeams>
    15d6:	b8 00 00 00 00       	mov    $0x0,%eax
    15db:	e8 e0 01 00 00       	call   17c0 <startGame>
    15e0:	b8 00 00 00 00       	mov    $0x0,%eax
    15e5:	e8 ca 02 00 00       	call   18b4 <play>
    15ea:	b8 00 00 00 00       	mov    $0x0,%eax
    15ef:	e8 95 03 00 00       	call   1989 <endGame>
    15f4:	48 8b 05 a5 3a 00 00 	mov    0x3aa5(%rip),%rax        # 50a0 <sh>
    15fb:	48 89 c7             	mov    %rax,%rdi
    15fe:	e8 0c 05 00 00       	call   1b0f <shmemDettach>
    1603:	83 f8 ff             	cmp    $0xffffffff,%eax
    1606:	75 13                	jne    161b <main+0x1d2>
    1608:	48 8d 3d f1 1a 00 00 	lea    0x1af1(%rip),%rdi        # 3100 <_IO_stdin_used+0x100>
    160f:	e8 bc fc ff ff       	call   12d0 <perror@plt>
    1614:	b8 01 00 00 00       	mov    $0x1,%eax
    1619:	eb 05                	jmp    1620 <main+0x1d7>
    161b:	b8 00 00 00 00       	mov    $0x0,%eax
    1620:	c9                   	leave  
    1621:	c3                   	ret    

0000000000001622 <arrive>:
    1622:	f3 0f 1e fa          	endbr64 
    1626:	55                   	push   %rbp
    1627:	48 89 e5             	mov    %rsp,%rbp
    162a:	48 8b 05 6f 3a 00 00 	mov    0x3a6f(%rip),%rax        # 50a0 <sh>
    1631:	8b 50 58             	mov    0x58(%rax),%edx
    1634:	8b 05 5e 3a 00 00    	mov    0x3a5e(%rip),%eax        # 5098 <semgid>
    163a:	89 d6                	mov    %edx,%esi
    163c:	89 c7                	mov    %eax,%edi
    163e:	e8 43 06 00 00       	call   1c86 <semDown>
    1643:	83 f8 ff             	cmp    $0xffffffff,%eax
    1646:	75 16                	jne    165e <arrive+0x3c>
    1648:	48 8d 3d f9 1a 00 00 	lea    0x1af9(%rip),%rdi        # 3148 <_IO_stdin_used+0x148>
    164f:	e8 7c fc ff ff       	call   12d0 <perror@plt>
    1654:	bf 01 00 00 00       	mov    $0x1,%edi
    1659:	e8 c2 fc ff ff       	call   1320 <exit@plt>
    165e:	48 8b 05 3b 3a 00 00 	mov    0x3a3b(%rip),%rax        # 50a0 <sh>
    1665:	c7 40 34 41 00 00 00 	movl   $0x41,0x34(%rax)
    166c:	48 8b 05 2d 3a 00 00 	mov    0x3a2d(%rip),%rax        # 50a0 <sh>
    1673:	48 89 c6             	mov    %rax,%rsi
    1676:	48 8d 3d e3 39 00 00 	lea    0x39e3(%rip),%rdi        # 5060 <nFic>
    167d:	e8 81 09 00 00       	call   2003 <saveState>
    1682:	48 8b 05 17 3a 00 00 	mov    0x3a17(%rip),%rax        # 50a0 <sh>
    1689:	8b 50 58             	mov    0x58(%rax),%edx
    168c:	8b 05 06 3a 00 00    	mov    0x3a06(%rip),%eax        # 5098 <semgid>
    1692:	89 d6                	mov    %edx,%esi
    1694:	89 c7                	mov    %eax,%edi
    1696:	e8 76 06 00 00       	call   1d11 <semUp>
    169b:	83 f8 ff             	cmp    $0xffffffff,%eax
    169e:	75 16                	jne    16b6 <arrive+0x94>
    16a0:	48 8d 3d a1 1a 00 00 	lea    0x1aa1(%rip),%rdi        # 3148 <_IO_stdin_used+0x148>
    16a7:	e8 24 fc ff ff       	call   12d0 <perror@plt>
    16ac:	bf 01 00 00 00       	mov    $0x1,%edi
    16b1:	e8 6a fc ff ff       	call   1320 <exit@plt>
    16b6:	e8 d5 fb ff ff       	call   1290 <random@plt>
    16bb:	f2 48 0f 2a c8       	cvtsi2sd %rax,%xmm1
    16c0:	f2 0f 10 05 b8 1a 00 	movsd  0x1ab8(%rip),%xmm0        # 3180 <_IO_stdin_used+0x180>
    16c7:	00 
    16c8:	f2 0f 59 c1          	mulsd  %xmm1,%xmm0
    16cc:	f2 0f 10 0d b4 1a 00 	movsd  0x1ab4(%rip),%xmm1        # 3188 <_IO_stdin_used+0x188>
    16d3:	00 
    16d4:	f2 0f 5e c1          	divsd  %xmm1,%xmm0
    16d8:	66 0f 28 c8          	movapd %xmm0,%xmm1
    16dc:	f2 0f 10 05 ac 1a 00 	movsd  0x1aac(%rip),%xmm0        # 3190 <_IO_stdin_used+0x190>
    16e3:	00 
    16e4:	f2 0f 58 c1          	addsd  %xmm1,%xmm0
    16e8:	f2 48 0f 2c c0       	cvttsd2si %xmm0,%rax
    16ed:	89 c7                	mov    %eax,%edi
    16ef:	e8 5c fc ff ff       	call   1350 <usleep@plt>
    16f4:	90                   	nop
    16f5:	5d                   	pop    %rbp
    16f6:	c3                   	ret    

00000000000016f7 <waitForTeams>:
    16f7:	f3 0f 1e fa          	endbr64 
    16fb:	55                   	push   %rbp
    16fc:	48 89 e5             	mov    %rsp,%rbp
    16ff:	48 8b 05 9a 39 00 00 	mov    0x399a(%rip),%rax        # 50a0 <sh>
    1706:	8b 50 58             	mov    0x58(%rax),%edx
    1709:	8b 05 89 39 00 00    	mov    0x3989(%rip),%eax        # 5098 <semgid>
    170f:	89 d6                	mov    %edx,%esi
    1711:	89 c7                	mov    %eax,%edi
    1713:	e8 6e 05 00 00       	call   1c86 <semDown>
    1718:	83 f8 ff             	cmp    $0xffffffff,%eax
    171b:	75 16                	jne    1733 <waitForTeams+0x3c>
    171d:	48 8d 3d 24 1a 00 00 	lea    0x1a24(%rip),%rdi        # 3148 <_IO_stdin_used+0x148>
    1724:	e8 a7 fb ff ff       	call   12d0 <perror@plt>
    1729:	bf 01 00 00 00       	mov    $0x1,%edi
    172e:	e8 ed fb ff ff       	call   1320 <exit@plt>
    1733:	48 8b 05 66 39 00 00 	mov    0x3966(%rip),%rax        # 50a0 <sh>
    173a:	c7 40 34 57 00 00 00 	movl   $0x57,0x34(%rax)
    1741:	48 8b 05 58 39 00 00 	mov    0x3958(%rip),%rax        # 50a0 <sh>
    1748:	48 89 c6             	mov    %rax,%rsi
    174b:	48 8d 3d 0e 39 00 00 	lea    0x390e(%rip),%rdi        # 5060 <nFic>
    1752:	e8 ac 08 00 00       	call   2003 <saveState>
    1757:	48 8b 05 42 39 00 00 	mov    0x3942(%rip),%rax        # 50a0 <sh>
    175e:	8b 50 58             	mov    0x58(%rax),%edx
    1761:	8b 05 31 39 00 00    	mov    0x3931(%rip),%eax        # 5098 <semgid>
    1767:	89 d6                	mov    %edx,%esi
    1769:	89 c7                	mov    %eax,%edi
    176b:	e8 a1 05 00 00       	call   1d11 <semUp>
    1770:	83 f8 ff             	cmp    $0xffffffff,%eax
    1773:	75 16                	jne    178b <waitForTeams+0x94>
    1775:	48 8d 3d cc 19 00 00 	lea    0x19cc(%rip),%rdi        # 3148 <_IO_stdin_used+0x148>
    177c:	e8 4f fb ff ff       	call   12d0 <perror@plt>
    1781:	bf 01 00 00 00       	mov    $0x1,%edi
    1786:	e8 95 fb ff ff       	call   1320 <exit@plt>
    178b:	48 8b 05 0e 39 00 00 	mov    0x390e(%rip),%rax        # 50a0 <sh>
    1792:	8b 50 6c             	mov    0x6c(%rax),%edx
    1795:	8b 05 fd 38 00 00    	mov    0x38fd(%rip),%eax        # 5098 <semgid>
    179b:	89 d6                	mov    %edx,%esi
    179d:	89 c7                	mov    %eax,%edi
    179f:	e8 e2 04 00 00       	call   1c86 <semDown>
    17a4:	48 8b 05 f5 38 00 00 	mov    0x38f5(%rip),%rax        # 50a0 <sh>
    17ab:	8b 50 6c             	mov    0x6c(%rax),%edx
    17ae:	8b 05 e4 38 00 00    	mov    0x38e4(%rip),%eax        # 5098 <semgid>
    17b4:	89 d6                	mov    %edx,%esi
    17b6:	89 c7                	mov    %eax,%edi
    17b8:	e8 c9 04 00 00       	call   1c86 <semDown>
    17bd:	90                   	nop
    17be:	5d                   	pop    %rbp
    17bf:	c3                   	ret    

00000000000017c0 <startGame>:
    17c0:	f3 0f 1e fa          	endbr64 
    17c4:	55                   	push   %rbp
    17c5:	48 89 e5             	mov    %rsp,%rbp
    17c8:	48 83 ec 10          	sub    $0x10,%rsp
    17cc:	48 8b 05 cd 38 00 00 	mov    0x38cd(%rip),%rax        # 50a0 <sh>
    17d3:	8b 50 58             	mov    0x58(%rax),%edx
    17d6:	8b 05 bc 38 00 00    	mov    0x38bc(%rip),%eax        # 5098 <semgid>
    17dc:	89 d6                	mov    %edx,%esi
    17de:	89 c7                	mov    %eax,%edi
    17e0:	e8 a1 04 00 00       	call   1c86 <semDown>
    17e5:	83 f8 ff             	cmp    $0xffffffff,%eax
    17e8:	75 16                	jne    1800 <startGame+0x40>
    17ea:	48 8d 3d 57 19 00 00 	lea    0x1957(%rip),%rdi        # 3148 <_IO_stdin_used+0x148>
    17f1:	e8 da fa ff ff       	call   12d0 <perror@plt>
    17f6:	bf 01 00 00 00       	mov    $0x1,%edi
    17fb:	e8 20 fb ff ff       	call   1320 <exit@plt>
    1800:	48 8b 05 99 38 00 00 	mov    0x3899(%rip),%rax        # 50a0 <sh>
    1807:	c7 40 34 53 00 00 00 	movl   $0x53,0x34(%rax)
    180e:	48 8b 05 8b 38 00 00 	mov    0x388b(%rip),%rax        # 50a0 <sh>
    1815:	48 89 c6             	mov    %rax,%rsi
    1818:	48 8d 3d 41 38 00 00 	lea    0x3841(%rip),%rdi        # 5060 <nFic>
    181f:	e8 df 07 00 00       	call   2003 <saveState>
    1824:	48 8b 05 75 38 00 00 	mov    0x3875(%rip),%rax        # 50a0 <sh>
    182b:	8b 50 58             	mov    0x58(%rax),%edx
    182e:	8b 05 64 38 00 00    	mov    0x3864(%rip),%eax        # 5098 <semgid>
    1834:	89 d6                	mov    %edx,%esi
    1836:	89 c7                	mov    %eax,%edi
    1838:	e8 d4 04 00 00       	call   1d11 <semUp>
    183d:	83 f8 ff             	cmp    $0xffffffff,%eax
    1840:	75 16                	jne    1858 <startGame+0x98>
    1842:	48 8d 3d ff 18 00 00 	lea    0x18ff(%rip),%rdi        # 3148 <_IO_stdin_used+0x148>
    1849:	e8 82 fa ff ff       	call   12d0 <perror@plt>
    184e:	bf 01 00 00 00       	mov    $0x1,%edi
    1853:	e8 c8 fa ff ff       	call   1320 <exit@plt>
    1858:	c7 45 fc 00 00 00 00 	movl   $0x0,-0x4(%rbp)
    185f:	eb 1d                	jmp    187e <startGame+0xbe>
    1861:	48 8b 05 38 38 00 00 	mov    0x3838(%rip),%rax        # 50a0 <sh>
    1868:	8b 50 64             	mov    0x64(%rax),%edx
    186b:	8b 05 27 38 00 00    	mov    0x3827(%rip),%eax        # 5098 <semgid>
    1871:	89 d6                	mov    %edx,%esi
    1873:	89 c7                	mov    %eax,%edi
    1875:	e8 97 04 00 00       	call   1d11 <semUp>
    187a:	83 45 fc 01          	addl   $0x1,-0x4(%rbp)
    187e:	83 7d fc 09          	cmpl   $0x9,-0x4(%rbp)
    1882:	7e dd                	jle    1861 <startGame+0xa1>
    1884:	c7 45 fc 00 00 00 00 	movl   $0x0,-0x4(%rbp)
    188b:	eb 1d                	jmp    18aa <startGame+0xea>
    188d:	48 8b 05 0c 38 00 00 	mov    0x380c(%rip),%rax        # 50a0 <sh>
    1894:	8b 50 74             	mov    0x74(%rax),%edx
    1897:	8b 05 fb 37 00 00    	mov    0x37fb(%rip),%eax        # 5098 <semgid>
    189d:	89 d6                	mov    %edx,%esi
    189f:	89 c7                	mov    %eax,%edi
    18a1:	e8 e0 03 00 00       	call   1c86 <semDown>
    18a6:	83 45 fc 01          	addl   $0x1,-0x4(%rbp)
    18aa:	83 7d fc 09          	cmpl   $0x9,-0x4(%rbp)
    18ae:	7e dd                	jle    188d <startGame+0xcd>
    18b0:	90                   	nop
    18b1:	90                   	nop
    18b2:	c9                   	leave  
    18b3:	c3                   	ret    

00000000000018b4 <play>:
    18b4:	f3 0f 1e fa          	endbr64 
    18b8:	55                   	push   %rbp
    18b9:	48 89 e5             	mov    %rsp,%rbp
    18bc:	48 8b 05 dd 37 00 00 	mov    0x37dd(%rip),%rax        # 50a0 <sh>
    18c3:	8b 50 58             	mov    0x58(%rax),%edx
    18c6:	8b 05 cc 37 00 00    	mov    0x37cc(%rip),%eax        # 5098 <semgid>
    18cc:	89 d6                	mov    %edx,%esi
    18ce:	89 c7                	mov    %eax,%edi
    18d0:	e8 b1 03 00 00       	call   1c86 <semDown>
    18d5:	83 f8 ff             	cmp    $0xffffffff,%eax
    18d8:	75 16                	jne    18f0 <play+0x3c>
    18da:	48 8d 3d 67 18 00 00 	lea    0x1867(%rip),%rdi        # 3148 <_IO_stdin_used+0x148>
    18e1:	e8 ea f9 ff ff       	call   12d0 <perror@plt>
    18e6:	bf 01 00 00 00       	mov    $0x1,%edi
    18eb:	e8 30 fa ff ff       	call   1320 <exit@plt>
    18f0:	48 8b 05 a9 37 00 00 	mov    0x37a9(%rip),%rax        # 50a0 <sh>
    18f7:	c7 40 34 52 00 00 00 	movl   $0x52,0x34(%rax)
    18fe:	48 8b 05 9b 37 00 00 	mov    0x379b(%rip),%rax        # 50a0 <sh>
    1905:	48 89 c6             	mov    %rax,%rsi
    1908:	48 8d 3d 51 37 00 00 	lea    0x3751(%rip),%rdi        # 5060 <nFic>
    190f:	e8 ef 06 00 00       	call   2003 <saveState>
    1914:	48 8b 05 85 37 00 00 	mov    0x3785(%rip),%rax        # 50a0 <sh>
    191b:	8b 50 58             	mov    0x58(%rax),%edx
    191e:	8b 05 74 37 00 00    	mov    0x3774(%rip),%eax        # 5098 <semgid>
    1924:	89 d6                	mov    %edx,%esi
    1926:	89 c7                	mov    %eax,%edi
    1928:	e8 e4 03 00 00       	call   1d11 <semUp>
    192d:	83 f8 ff             	cmp    $0xffffffff,%eax
    1930:	75 16                	jne    1948 <play+0x94>
    1932:	48 8d 3d 0f 18 00 00 	lea    0x180f(%rip),%rdi        # 3148 <_IO_stdin_used+0x148>
    1939:	e8 92 f9 ff ff       	call   12d0 <perror@plt>
    193e:	bf 01 00 00 00       	mov    $0x1,%edi
    1943:	e8 d8 f9 ff ff       	call   1320 <exit@plt>
    1948:	e8 43 f9 ff ff       	call   1290 <random@plt>
    194d:	f2 48 0f 2a c8       	cvtsi2sd %rax,%xmm1
    1952:	f2 0f 10 05 26 18 00 	movsd  0x1826(%rip),%xmm0        # 3180 <_IO_stdin_used+0x180>
    1959:	00 
    195a:	f2 0f 59 c1          	mulsd  %xmm1,%xmm0
    195e:	f2 0f 10 0d 22 18 00 	movsd  0x1822(%rip),%xmm1        # 3188 <_IO_stdin_used+0x188>
    1965:	00 
    1966:	f2 0f 5e c1          	divsd  %xmm1,%xmm0
    196a:	66 0f 28 c8          	movapd %xmm0,%xmm1
    196e:	f2 0f 10 05 22 18 00 	movsd  0x1822(%rip),%xmm0        # 3198 <_IO_stdin_used+0x198>
    1975:	00 
    1976:	f2 0f 58 c1          	addsd  %xmm1,%xmm0
    197a:	f2 48 0f 2c c0       	cvttsd2si %xmm0,%rax
    197f:	89 c7                	mov    %eax,%edi
    1981:	e8 ca f9 ff ff       	call   1350 <usleep@plt>
    1986:	90                   	nop
    1987:	5d                   	pop    %rbp
    1988:	c3                   	ret    

0000000000001989 <endGame>:
    1989:	f3 0f 1e fa          	endbr64 
    198d:	55                   	push   %rbp
    198e:	48 89 e5             	mov    %rsp,%rbp
    1991:	48 83 ec 10          	sub    $0x10,%rsp
    1995:	48 8b 05 04 37 00 00 	mov    0x3704(%rip),%rax        # 50a0 <sh>
    199c:	8b 50 58             	mov    0x58(%rax),%edx
    199f:	8b 05 f3 36 00 00    	mov    0x36f3(%rip),%eax        # 5098 <semgid>
    19a5:	89 d6                	mov    %edx,%esi
    19a7:	89 c7                	mov    %eax,%edi
    19a9:	e8 d8 02 00 00       	call   1c86 <semDown>
    19ae:	83 f8 ff             	cmp    $0xffffffff,%eax
    19b1:	75 16                	jne    19c9 <endGame+0x40>
    19b3:	48 8d 3d 8e 17 00 00 	lea    0x178e(%rip),%rdi        # 3148 <_IO_stdin_used+0x148>
    19ba:	e8 11 f9 ff ff       	call   12d0 <perror@plt>
    19bf:	bf 01 00 00 00       	mov    $0x1,%edi
    19c4:	e8 57 f9 ff ff       	call   1320 <exit@plt>
    19c9:	48 8b 05 d0 36 00 00 	mov    0x36d0(%rip),%rax        # 50a0 <sh>
    19d0:	c7 40 34 45 00 00 00 	movl   $0x45,0x34(%rax)
    19d7:	48 8b 05 c2 36 00 00 	mov    0x36c2(%rip),%rax        # 50a0 <sh>
    19de:	48 89 c6             	mov    %rax,%rsi
    19e1:	48 8d 3d 78 36 00 00 	lea    0x3678(%rip),%rdi        # 5060 <nFic>
    19e8:	e8 16 06 00 00       	call   2003 <saveState>
    19ed:	48 8b 05 ac 36 00 00 	mov    0x36ac(%rip),%rax        # 50a0 <sh>
    19f4:	8b 50 58             	mov    0x58(%rax),%edx
    19f7:	8b 05 9b 36 00 00    	mov    0x369b(%rip),%eax        # 5098 <semgid>
    19fd:	89 d6                	mov    %edx,%esi
    19ff:	89 c7                	mov    %eax,%edi
    1a01:	e8 0b 03 00 00       	call   1d11 <semUp>
    1a06:	83 f8 ff             	cmp    $0xffffffff,%eax
    1a09:	75 16                	jne    1a21 <endGame+0x98>
    1a0b:	48 8d 3d 36 17 00 00 	lea    0x1736(%rip),%rdi        # 3148 <_IO_stdin_used+0x148>
    1a12:	e8 b9 f8 ff ff       	call   12d0 <perror@plt>
    1a17:	bf 01 00 00 00       	mov    $0x1,%edi
    1a1c:	e8 ff f8 ff ff       	call   1320 <exit@plt>
    1a21:	c7 45 fc 00 00 00 00 	movl   $0x0,-0x4(%rbp)
    1a28:	eb 1d                	jmp    1a47 <endGame+0xbe>
    1a2a:	48 8b 05 6f 36 00 00 	mov    0x366f(%rip),%rax        # 50a0 <sh>
    1a31:	8b 50 68             	mov    0x68(%rax),%edx
    1a34:	8b 05 5e 36 00 00    	mov    0x365e(%rip),%eax        # 5098 <semgid>
    1a3a:	89 d6                	mov    %edx,%esi
    1a3c:	89 c7                	mov    %eax,%edi
    1a3e:	e8 ce 02 00 00       	call   1d11 <semUp>
    1a43:	83 45 fc 01          	addl   $0x1,-0x4(%rbp)
    1a47:	83 7d fc 09          	cmpl   $0x9,-0x4(%rbp)
    1a4b:	7e dd                	jle    1a2a <endGame+0xa1>
    1a4d:	90                   	nop
    1a4e:	90                   	nop
    1a4f:	c9                   	leave  
    1a50:	c3                   	ret    

0000000000001a51 <shmemCreate>:
    1a51:	f3 0f 1e fa          	endbr64 
    1a55:	55                   	push   %rbp
    1a56:	48 89 e5             	mov    %rsp,%rbp
    1a59:	48 83 ec 10          	sub    $0x10,%rsp
    1a5d:	89 7d fc             	mov    %edi,-0x4(%rbp)
    1a60:	89 75 f8             	mov    %esi,-0x8(%rbp)
    1a63:	8b 4d f8             	mov    -0x8(%rbp),%ecx
    1a66:	8b 45 fc             	mov    -0x4(%rbp),%eax
    1a69:	ba 80 07 00 00       	mov    $0x780,%edx
    1a6e:	48 89 ce             	mov    %rcx,%rsi
    1a71:	89 c7                	mov    %eax,%edi
    1a73:	e8 88 f8 ff ff       	call   1300 <shmget@plt>
    1a78:	c9                   	leave  
    1a79:	c3                   	ret    

0000000000001a7a <shmemConnect>:
    1a7a:	f3 0f 1e fa          	endbr64 
    1a7e:	55                   	push   %rbp
    1a7f:	48 89 e5             	mov    %rsp,%rbp
    1a82:	48 83 ec 10          	sub    $0x10,%rsp
    1a86:	89 7d fc             	mov    %edi,-0x4(%rbp)
    1a89:	8b 45 fc             	mov    -0x4(%rbp),%eax
    1a8c:	ba 80 01 00 00       	mov    $0x180,%edx
    1a91:	be 01 00 00 00       	mov    $0x1,%esi
    1a96:	89 c7                	mov    %eax,%edi
    1a98:	e8 63 f8 ff ff       	call   1300 <shmget@plt>
    1a9d:	c9                   	leave  
    1a9e:	c3                   	ret    

0000000000001a9f <shmemDestroy>:
    1a9f:	f3 0f 1e fa          	endbr64 
    1aa3:	55                   	push   %rbp
    1aa4:	48 89 e5             	mov    %rsp,%rbp
    1aa7:	48 83 ec 10          	sub    $0x10,%rsp
    1aab:	89 7d fc             	mov    %edi,-0x4(%rbp)
    1aae:	8b 45 fc             	mov    -0x4(%rbp),%eax
    1ab1:	ba 00 00 00 00       	mov    $0x0,%edx
    1ab6:	be 00 00 00 00       	mov    $0x0,%esi
    1abb:	89 c7                	mov    %eax,%edi
    1abd:	e8 ee f7 ff ff       	call   12b0 <shmctl@plt>
    1ac2:	c9                   	leave  
    1ac3:	c3                   	ret    

0000000000001ac4 <shmemAttach>:
    1ac4:	f3 0f 1e fa          	endbr64 
    1ac8:	55                   	push   %rbp
    1ac9:	48 89 e5             	mov    %rsp,%rbp
    1acc:	48 83 ec 20          	sub    $0x20,%rsp
    1ad0:	89 7d ec             	mov    %edi,-0x14(%rbp)
    1ad3:	48 89 75 e0          	mov    %rsi,-0x20(%rbp)
    1ad7:	8b 45 ec             	mov    -0x14(%rbp),%eax
    1ada:	ba 00 00 00 00       	mov    $0x0,%edx
    1adf:	be 00 00 00 00       	mov    $0x0,%esi
    1ae4:	89 c7                	mov    %eax,%edi
    1ae6:	e8 05 f8 ff ff       	call   12f0 <shmat@plt>
    1aeb:	48 89 45 f8          	mov    %rax,-0x8(%rbp)
    1aef:	48 83 7d f8 ff       	cmpq   $0xffffffffffffffff,-0x8(%rbp)
    1af4:	74 12                	je     1b08 <shmemAttach+0x44>
    1af6:	48 8b 45 e0          	mov    -0x20(%rbp),%rax
    1afa:	48 8b 55 f8          	mov    -0x8(%rbp),%rdx
    1afe:	48 89 10             	mov    %rdx,(%rax)
    1b01:	b8 00 00 00 00       	mov    $0x0,%eax
    1b06:	eb 05                	jmp    1b0d <shmemAttach+0x49>
    1b08:	b8 01 00 00 00       	mov    $0x1,%eax
    1b0d:	c9                   	leave  
    1b0e:	c3                   	ret    

0000000000001b0f <shmemDettach>:
    1b0f:	f3 0f 1e fa          	endbr64 
    1b13:	55                   	push   %rbp
    1b14:	48 89 e5             	mov    %rsp,%rbp
    1b17:	48 83 ec 10          	sub    $0x10,%rsp
    1b1b:	48 89 7d f8          	mov    %rdi,-0x8(%rbp)
    1b1f:	48 8b 45 f8          	mov    -0x8(%rbp),%rax
    1b23:	48 89 c7             	mov    %rax,%rdi
    1b26:	e8 d5 f6 ff ff       	call   1200 <shmdt@plt>
    1b2b:	c9                   	leave  
    1b2c:	c3                   	ret    

0000000000001b2d <semCreate>:
    1b2d:	f3 0f 1e fa          	endbr64 
    1b31:	55                   	push   %rbp
    1b32:	48 89 e5             	mov    %rsp,%rbp
    1b35:	48 83 ec 10          	sub    $0x10,%rsp
    1b39:	89 7d fc             	mov    %edi,-0x4(%rbp)
    1b3c:	89 75 f8             	mov    %esi,-0x8(%rbp)
    1b3f:	8b 45 f8             	mov    -0x8(%rbp),%eax
    1b42:	83 c0 01             	add    $0x1,%eax
    1b45:	89 c1                	mov    %eax,%ecx
    1b47:	8b 45 fc             	mov    -0x4(%rbp),%eax
    1b4a:	ba 80 07 00 00       	mov    $0x780,%edx
    1b4f:	89 ce                	mov    %ecx,%esi
    1b51:	89 c7                	mov    %eax,%edi
    1b53:	e8 78 f6 ff ff       	call   11d0 <semget@plt>
    1b58:	c9                   	leave  
    1b59:	c3                   	ret    

0000000000001b5a <semConnect>:
    1b5a:	f3 0f 1e fa          	endbr64 
    1b5e:	55                   	push   %rbp
    1b5f:	48 89 e5             	mov    %rsp,%rbp
    1b62:	48 83 ec 30          	sub    $0x30,%rsp
    1b66:	89 7d dc             	mov    %edi,-0x24(%rbp)
    1b69:	64 48 8b 04 25 28 00 	mov    %fs:0x28,%rax
    1b70:	00 00 
    1b72:	48 89 45 f8          	mov    %rax,-0x8(%rbp)
    1b76:	31 c0                	xor    %eax,%eax
    1b78:	66 c7 45 ec 00 00    	movw   $0x0,-0x14(%rbp)
    1b7e:	66 c7 45 ee ff ff    	movw   $0xffff,-0x12(%rbp)
    1b84:	66 c7 45 f0 00 00    	movw   $0x0,-0x10(%rbp)
    1b8a:	66 c7 45 f2 00 00    	movw   $0x0,-0xe(%rbp)
    1b90:	66 c7 45 f4 01 00    	movw   $0x1,-0xc(%rbp)
    1b96:	66 c7 45 f6 00 00    	movw   $0x0,-0xa(%rbp)
    1b9c:	8b 45 dc             	mov    -0x24(%rbp),%eax
    1b9f:	ba 80 01 00 00       	mov    $0x180,%edx
    1ba4:	be 01 00 00 00       	mov    $0x1,%esi
    1ba9:	89 c7                	mov    %eax,%edi
    1bab:	e8 20 f6 ff ff       	call   11d0 <semget@plt>
    1bb0:	89 45 e8             	mov    %eax,-0x18(%rbp)
    1bb3:	83 7d e8 ff          	cmpl   $0xffffffff,-0x18(%rbp)
    1bb7:	75 07                	jne    1bc0 <semConnect+0x66>
    1bb9:	b8 ff ff ff ff       	mov    $0xffffffff,%eax
    1bbe:	eb 25                	jmp    1be5 <semConnect+0x8b>
    1bc0:	48 8d 4d ec          	lea    -0x14(%rbp),%rcx
    1bc4:	8b 45 e8             	mov    -0x18(%rbp),%eax
    1bc7:	ba 02 00 00 00       	mov    $0x2,%edx
    1bcc:	48 89 ce             	mov    %rcx,%rsi
    1bcf:	89 c7                	mov    %eax,%edi
    1bd1:	e8 3a f7 ff ff       	call   1310 <semop@plt>
    1bd6:	83 f8 ff             	cmp    $0xffffffff,%eax
    1bd9:	75 07                	jne    1be2 <semConnect+0x88>
    1bdb:	b8 ff ff ff ff       	mov    $0xffffffff,%eax
    1be0:	eb 03                	jmp    1be5 <semConnect+0x8b>
    1be2:	8b 45 e8             	mov    -0x18(%rbp),%eax
    1be5:	48 8b 55 f8          	mov    -0x8(%rbp),%rdx
    1be9:	64 48 33 14 25 28 00 	xor    %fs:0x28,%rdx
    1bf0:	00 00 
    1bf2:	74 05                	je     1bf9 <semConnect+0x9f>
    1bf4:	e8 37 f6 ff ff       	call   1230 <__stack_chk_fail@plt>
    1bf9:	c9                   	leave  
    1bfa:	c3                   	ret    

0000000000001bfb <semDestroy>:
    1bfb:	f3 0f 1e fa          	endbr64 
    1bff:	55                   	push   %rbp
    1c00:	48 89 e5             	mov    %rsp,%rbp
    1c03:	48 83 ec 10          	sub    $0x10,%rsp
    1c07:	89 7d fc             	mov    %edi,-0x4(%rbp)
    1c0a:	8b 45 fc             	mov    -0x4(%rbp),%eax
    1c0d:	b9 00 00 00 00       	mov    $0x0,%ecx
    1c12:	ba 00 00 00 00       	mov    $0x0,%edx
    1c17:	be 00 00 00 00       	mov    $0x0,%esi
    1c1c:	89 c7                	mov    %eax,%edi
    1c1e:	b8 00 00 00 00       	mov    $0x0,%eax
    1c23:	e8 b8 f6 ff ff       	call   12e0 <semctl@plt>
    1c28:	c9                   	leave  
    1c29:	c3                   	ret    

0000000000001c2a <semSignal>:
    1c2a:	f3 0f 1e fa          	endbr64 
    1c2e:	55                   	push   %rbp
    1c2f:	48 89 e5             	mov    %rsp,%rbp
    1c32:	48 83 ec 20          	sub    $0x20,%rsp
    1c36:	89 7d ec             	mov    %edi,-0x14(%rbp)
    1c39:	64 48 8b 04 25 28 00 	mov    %fs:0x28,%rax
    1c40:	00 00 
    1c42:	48 89 45 f8          	mov    %rax,-0x8(%rbp)
    1c46:	31 c0                	xor    %eax,%eax
    1c48:	66 c7 45 f2 00 00    	movw   $0x0,-0xe(%rbp)
    1c4e:	66 c7 45 f4 01 00    	movw   $0x1,-0xc(%rbp)
    1c54:	66 c7 45 f6 00 00    	movw   $0x0,-0xa(%rbp)
    1c5a:	48 8d 4d f2          	lea    -0xe(%rbp),%rcx
    1c5e:	8b 45 ec             	mov    -0x14(%rbp),%eax
    1c61:	ba 01 00 00 00       	mov    $0x1,%edx
    1c66:	48 89 ce             	mov    %rcx,%rsi
    1c69:	89 c7                	mov    %eax,%edi
    1c6b:	e8 a0 f6 ff ff       	call   1310 <semop@plt>
    1c70:	48 8b 55 f8          	mov    -0x8(%rbp),%rdx
    1c74:	64 48 33 14 25 28 00 	xor    %fs:0x28,%rdx
    1c7b:	00 00 
    1c7d:	74 05                	je     1c84 <semSignal+0x5a>
    1c7f:	e8 ac f5 ff ff       	call   1230 <__stack_chk_fail@plt>
    1c84:	c9                   	leave  
    1c85:	c3                   	ret    

0000000000001c86 <semDown>:
    1c86:	f3 0f 1e fa          	endbr64 
    1c8a:	55                   	push   %rbp
    1c8b:	48 89 e5             	mov    %rsp,%rbp
    1c8e:	48 83 ec 20          	sub    $0x20,%rsp
    1c92:	89 7d ec             	mov    %edi,-0x14(%rbp)
    1c95:	89 75 e8             	mov    %esi,-0x18(%rbp)
    1c98:	64 48 8b 04 25 28 00 	mov    %fs:0x28,%rax
    1c9f:	00 00 
    1ca1:	48 89 45 f8          	mov    %rax,-0x8(%rbp)
    1ca5:	31 c0                	xor    %eax,%eax
    1ca7:	66 c7 45 f2 00 00    	movw   $0x0,-0xe(%rbp)
    1cad:	66 c7 45 f4 ff ff    	movw   $0xffff,-0xc(%rbp)
    1cb3:	66 c7 45 f6 00 00    	movw   $0x0,-0xa(%rbp)
    1cb9:	83 7d e8 00          	cmpl   $0x0,-0x18(%rbp)
    1cbd:	75 1f                	jne    1cde <semDown+0x58>
    1cbf:	48 8d 0d f2 14 00 00 	lea    0x14f2(%rip),%rcx        # 31b8 <__PRETTY_FUNCTION__.2577>
    1cc6:	ba 75 00 00 00       	mov    $0x75,%edx
    1ccb:	48 8d 35 ce 14 00 00 	lea    0x14ce(%rip),%rsi        # 31a0 <_IO_stdin_used+0x1a0>
    1cd2:	48 8d 3d d3 14 00 00 	lea    0x14d3(%rip),%rdi        # 31ac <_IO_stdin_used+0x1ac>
    1cd9:	e8 72 f5 ff ff       	call   1250 <__assert_fail@plt>
    1cde:	8b 45 e8             	mov    -0x18(%rbp),%eax
    1ce1:	66 89 45 f2          	mov    %ax,-0xe(%rbp)
    1ce5:	48 8d 4d f2          	lea    -0xe(%rbp),%rcx
    1ce9:	8b 45 ec             	mov    -0x14(%rbp),%eax
    1cec:	ba 01 00 00 00       	mov    $0x1,%edx
    1cf1:	48 89 ce             	mov    %rcx,%rsi
    1cf4:	89 c7                	mov    %eax,%edi
    1cf6:	e8 15 f6 ff ff       	call   1310 <semop@plt>
    1cfb:	48 8b 55 f8          	mov    -0x8(%rbp),%rdx
    1cff:	64 48 33 14 25 28 00 	xor    %fs:0x28,%rdx
    1d06:	00 00 
    1d08:	74 05                	je     1d0f <semDown+0x89>
    1d0a:	e8 21 f5 ff ff       	call   1230 <__stack_chk_fail@plt>
    1d0f:	c9                   	leave  
    1d10:	c3                   	ret    

0000000000001d11 <semUp>:
    1d11:	f3 0f 1e fa          	endbr64 
    1d15:	55                   	push   %rbp
    1d16:	48 89 e5             	mov    %rsp,%rbp
    1d19:	48 83 ec 20          	sub    $0x20,%rsp
    1d1d:	89 7d ec             	mov    %edi,-0x14(%rbp)
    1d20:	89 75 e8             	mov    %esi,-0x18(%rbp)
    1d23:	64 48 8b 04 25 28 00 	mov    %fs:0x28,%rax
    1d2a:	00 00 
    1d2c:	48 89 45 f8          	mov    %rax,-0x8(%rbp)
    1d30:	31 c0                	xor    %eax,%eax
    1d32:	66 c7 45 f2 00 00    	movw   $0x0,-0xe(%rbp)
    1d38:	66 c7 45 f4 01 00    	movw   $0x1,-0xc(%rbp)
    1d3e:	66 c7 45 f6 00 00    	movw   $0x0,-0xa(%rbp)
    1d44:	83 7d e8 00          	cmpl   $0x0,-0x18(%rbp)
    1d48:	75 1f                	jne    1d69 <semUp+0x58>
    1d4a:	48 8d 0d 6f 14 00 00 	lea    0x146f(%rip),%rcx        # 31c0 <__PRETTY_FUNCTION__.2583>
    1d51:	ba 8a 00 00 00       	mov    $0x8a,%edx
    1d56:	48 8d 35 43 14 00 00 	lea    0x1443(%rip),%rsi        # 31a0 <_IO_stdin_used+0x1a0>
    1d5d:	48 8d 3d 48 14 00 00 	lea    0x1448(%rip),%rdi        # 31ac <_IO_stdin_used+0x1ac>
    1d64:	e8 e7 f4 ff ff       	call   1250 <__assert_fail@plt>
    1d69:	8b 45 e8             	mov    -0x18(%rbp),%eax
    1d6c:	66 89 45 f2          	mov    %ax,-0xe(%rbp)
    1d70:	48 8d 4d f2          	lea    -0xe(%rbp),%rcx
    1d74:	8b 45 ec             	mov    -0x14(%rbp),%eax
    1d77:	ba 01 00 00 00       	mov    $0x1,%edx
    1d7c:	48 89 ce             	mov    %rcx,%rsi
    1d7f:	89 c7                	mov    %eax,%edi
    1d81:	e8 8a f5 ff ff       	call   1310 <semop@plt>
    1d86:	48 8b 55 f8          	mov    -0x8(%rbp),%rdx
    1d8a:	64 48 33 14 25 28 00 	xor    %fs:0x28,%rdx
    1d91:	00 00 
    1d93:	74 05                	je     1d9a <semUp+0x89>
    1d95:	e8 96 f4 ff ff       	call   1230 <__stack_chk_fail@plt>
    1d9a:	c9                   	leave  
    1d9b:	c3                   	ret    

0000000000001d9c <openLog>:
    1d9c:	f3 0f 1e fa          	endbr64 
    1da0:	55                   	push   %rbp
    1da1:	48 89 e5             	mov    %rsp,%rbp
    1da4:	48 83 ec 20          	sub    $0x20,%rsp
    1da8:	48 89 7d e8          	mov    %rdi,-0x18(%rbp)
    1dac:	48 89 75 e0          	mov    %rsi,-0x20(%rbp)
    1db0:	48 83 7d e8 00       	cmpq   $0x0,-0x18(%rbp)
    1db5:	74 0b                	je     1dc2 <openLog+0x26>
    1db7:	48 8b 45 e8          	mov    -0x18(%rbp),%rax
    1dbb:	0f b6 00             	movzbl (%rax),%eax
    1dbe:	84 c0                	test   %al,%al
    1dc0:	75 09                	jne    1dcb <openLog+0x2f>
    1dc2:	48 8b 05 57 32 00 00 	mov    0x3257(%rip),%rax        # 5020 <stdout@GLIBC_2.2.5>
    1dc9:	eb 72                	jmp    1e3d <openLog+0xa1>
    1dcb:	48 8b 45 e8          	mov    -0x18(%rbp),%rax
    1dcf:	48 89 45 f0          	mov    %rax,-0x10(%rbp)
    1dd3:	e8 38 f4 ff ff       	call   1210 <getpid@plt>
    1dd8:	89 c6                	mov    %eax,%esi
    1dda:	48 8b 05 5f 32 00 00 	mov    0x325f(%rip),%rax        # 5040 <stderr@GLIBC_2.2.5>
    1de1:	48 8b 4d e0          	mov    -0x20(%rbp),%rcx
    1de5:	48 8b 55 e8          	mov    -0x18(%rbp),%rdx
    1de9:	49 89 c8             	mov    %rcx,%r8
    1dec:	48 89 d1             	mov    %rdx,%rcx
    1def:	89 f2                	mov    %esi,%edx
    1df1:	48 8d 35 d0 13 00 00 	lea    0x13d0(%rip),%rsi        # 31c8 <__PRETTY_FUNCTION__.2583+0x8>
    1df8:	48 89 c7             	mov    %rax,%rdi
    1dfb:	b8 00 00 00 00       	mov    $0x0,%eax
    1e00:	e8 7b f4 ff ff       	call   1280 <fprintf@plt>
    1e05:	48 8b 55 e0          	mov    -0x20(%rbp),%rdx
    1e09:	48 8b 45 f0          	mov    -0x10(%rbp),%rax
    1e0d:	48 89 d6             	mov    %rdx,%rsi
    1e10:	48 89 c7             	mov    %rax,%rdi
    1e13:	e8 a8 f4 ff ff       	call   12c0 <fopen@plt>
    1e18:	48 89 45 f8          	mov    %rax,-0x8(%rbp)
    1e1c:	48 83 7d f8 00       	cmpq   $0x0,-0x8(%rbp)
    1e21:	75 16                	jne    1e39 <openLog+0x9d>
    1e23:	48 8d 3d b4 13 00 00 	lea    0x13b4(%rip),%rdi        # 31de <__PRETTY_FUNCTION__.2583+0x1e>
    1e2a:	e8 a1 f4 ff ff       	call   12d0 <perror@plt>
    1e2f:	bf 01 00 00 00       	mov    $0x1,%edi
    1e34:	e8 e7 f4 ff ff       	call   1320 <exit@plt>
    1e39:	48 8b 45 f8          	mov    -0x8(%rbp),%rax
    1e3d:	c9                   	leave  
    1e3e:	c3                   	ret    

0000000000001e3f <closeLog>:
    1e3f:	f3 0f 1e fa          	endbr64 
    1e43:	55                   	push   %rbp
    1e44:	48 89 e5             	mov    %rsp,%rbp
    1e47:	48 83 ec 10          	sub    $0x10,%rsp
    1e4b:	48 89 7d f8          	mov    %rdi,-0x8(%rbp)
    1e4f:	48 8b 05 ea 31 00 00 	mov    0x31ea(%rip),%rax        # 5040 <stderr@GLIBC_2.2.5>
    1e56:	48 39 45 f8          	cmp    %rax,-0x8(%rbp)
    1e5a:	74 0d                	je     1e69 <closeLog+0x2a>
    1e5c:	48 8b 05 bd 31 00 00 	mov    0x31bd(%rip),%rax        # 5020 <stdout@GLIBC_2.2.5>
    1e63:	48 39 45 f8          	cmp    %rax,-0x8(%rbp)
    1e67:	75 0e                	jne    1e77 <closeLog+0x38>
    1e69:	48 8b 45 f8          	mov    -0x8(%rbp),%rax
    1e6d:	48 89 c7             	mov    %rax,%rdi
    1e70:	e8 2b f4 ff ff       	call   12a0 <fflush@plt>
    1e75:	eb 27                	jmp    1e9e <closeLog+0x5f>
    1e77:	48 8b 45 f8          	mov    -0x8(%rbp),%rax
    1e7b:	48 89 c7             	mov    %rax,%rdi
    1e7e:	e8 9d f3 ff ff       	call   1220 <fclose@plt>
    1e83:	83 f8 ff             	cmp    $0xffffffff,%eax
    1e86:	75 16                	jne    1e9e <closeLog+0x5f>
    1e88:	48 8d 3d 69 13 00 00 	lea    0x1369(%rip),%rdi        # 31f8 <__PRETTY_FUNCTION__.2583+0x38>
    1e8f:	e8 3c f4 ff ff       	call   12d0 <perror@plt>
    1e94:	bf 01 00 00 00       	mov    $0x1,%edi
    1e99:	e8 82 f4 ff ff       	call   1320 <exit@plt>
    1e9e:	c9                   	leave  
    1e9f:	c3                   	ret    

0000000000001ea0 <printHeader>:
    1ea0:	f3 0f 1e fa          	endbr64 
    1ea4:	55                   	push   %rbp
    1ea5:	48 89 e5             	mov    %rsp,%rbp
    1ea8:	48 83 ec 20          	sub    $0x20,%rsp
    1eac:	48 89 7d e8          	mov    %rdi,-0x18(%rbp)
    1eb0:	48 89 75 e0          	mov    %rsi,-0x20(%rbp)
    1eb4:	c7 45 f8 00 00 00 00 	movl   $0x0,-0x8(%rbp)
    1ebb:	eb 28                	jmp    1ee5 <printHeader+0x45>
    1ebd:	8b 55 f8             	mov    -0x8(%rbp),%edx
    1ec0:	48 8b 45 e8          	mov    -0x18(%rbp),%rax
    1ec4:	89 d1                	mov    %edx,%ecx
    1ec6:	48 8d 15 48 13 00 00 	lea    0x1348(%rip),%rdx        # 3215 <__PRETTY_FUNCTION__.2583+0x55>
    1ecd:	48 8d 35 43 13 00 00 	lea    0x1343(%rip),%rsi        # 3217 <__PRETTY_FUNCTION__.2583+0x57>
    1ed4:	48 89 c7             	mov    %rax,%rdi
    1ed7:	b8 00 00 00 00       	mov    $0x0,%eax
    1edc:	e8 9f f3 ff ff       	call   1280 <fprintf@plt>
    1ee1:	83 45 f8 01          	addl   $0x1,-0x8(%rbp)
    1ee5:	48 8b 45 e0          	mov    -0x20(%rbp),%rax
    1ee9:	8b 40 38             	mov    0x38(%rax),%eax
    1eec:	39 45 f8             	cmp    %eax,-0x8(%rbp)
    1eef:	7c cc                	jl     1ebd <printHeader+0x1d>
    1ef1:	48 8b 45 e8          	mov    -0x18(%rbp),%rax
    1ef5:	48 89 c6             	mov    %rax,%rsi
    1ef8:	bf 20 00 00 00       	mov    $0x20,%edi
    1efd:	e8 6e f3 ff ff       	call   1270 <fputc@plt>
    1f02:	c7 45 fc 00 00 00 00 	movl   $0x0,-0x4(%rbp)
    1f09:	eb 28                	jmp    1f33 <printHeader+0x93>
    1f0b:	8b 55 fc             	mov    -0x4(%rbp),%edx
    1f0e:	48 8b 45 e8          	mov    -0x18(%rbp),%rax
    1f12:	89 d1                	mov    %edx,%ecx
    1f14:	48 8d 15 04 13 00 00 	lea    0x1304(%rip),%rdx        # 321f <__PRETTY_FUNCTION__.2583+0x5f>
    1f1b:	48 8d 35 f5 12 00 00 	lea    0x12f5(%rip),%rsi        # 3217 <__PRETTY_FUNCTION__.2583+0x57>
    1f22:	48 89 c7             	mov    %rax,%rdi
    1f25:	b8 00 00 00 00       	mov    $0x0,%eax
    1f2a:	e8 51 f3 ff ff       	call   1280 <fprintf@plt>
    1f2f:	83 45 fc 01          	addl   $0x1,-0x4(%rbp)
    1f33:	48 8b 45 e0          	mov    -0x20(%rbp),%rax
    1f37:	8b 40 3c             	mov    0x3c(%rax),%eax
    1f3a:	39 45 fc             	cmp    %eax,-0x4(%rbp)
    1f3d:	7c cc                	jl     1f0b <printHeader+0x6b>
    1f3f:	48 8b 45 e8          	mov    -0x18(%rbp),%rax
    1f43:	48 89 c6             	mov    %rax,%rsi
    1f46:	bf 20 00 00 00       	mov    $0x20,%edi
    1f4b:	e8 20 f3 ff ff       	call   1270 <fputc@plt>
    1f50:	48 8b 45 e8          	mov    -0x18(%rbp),%rax
    1f54:	b9 01 00 00 00       	mov    $0x1,%ecx
    1f59:	48 8d 15 c1 12 00 00 	lea    0x12c1(%rip),%rdx        # 3221 <__PRETTY_FUNCTION__.2583+0x61>
    1f60:	48 8d 35 b0 12 00 00 	lea    0x12b0(%rip),%rsi        # 3217 <__PRETTY_FUNCTION__.2583+0x57>
    1f67:	48 89 c7             	mov    %rax,%rdi
    1f6a:	b8 00 00 00 00       	mov    $0x0,%eax
    1f6f:	e8 0c f3 ff ff       	call   1280 <fprintf@plt>
    1f74:	48 8b 45 e8          	mov    -0x18(%rbp),%rax
    1f78:	48 89 c6             	mov    %rax,%rsi
    1f7b:	bf 20 00 00 00       	mov    $0x20,%edi
    1f80:	e8 eb f2 ff ff       	call   1270 <fputc@plt>
    1f85:	48 8b 45 e8          	mov    -0x18(%rbp),%rax
    1f89:	48 89 c6             	mov    %rax,%rsi
    1f8c:	bf 0a 00 00 00       	mov    $0xa,%edi
    1f91:	e8 da f2 ff ff       	call   1270 <fputc@plt>
    1f96:	90                   	nop
    1f97:	c9                   	leave  
    1f98:	c3                   	ret    

0000000000001f99 <createLog>:
    1f99:	f3 0f 1e fa          	endbr64 
    1f9d:	55                   	push   %rbp
    1f9e:	48 89 e5             	mov    %rsp,%rbp
    1fa1:	48 83 ec 20          	sub    $0x20,%rsp
    1fa5:	48 89 7d e8          	mov    %rdi,-0x18(%rbp)
    1fa9:	48 89 75 e0          	mov    %rsi,-0x20(%rbp)
    1fad:	48 8b 45 e8          	mov    -0x18(%rbp),%rax
    1fb1:	48 8d 35 6b 12 00 00 	lea    0x126b(%rip),%rsi        # 3223 <__PRETTY_FUNCTION__.2583+0x63>
    1fb8:	48 89 c7             	mov    %rax,%rdi
    1fbb:	e8 dc fd ff ff       	call   1d9c <openLog>
    1fc0:	48 89 45 f8          	mov    %rax,-0x8(%rbp)
    1fc4:	48 8b 45 f8          	mov    -0x8(%rbp),%rax
    1fc8:	ba 20 00 00 00       	mov    $0x20,%edx
    1fcd:	48 8d 35 54 12 00 00 	lea    0x1254(%rip),%rsi        # 3228 <__PRETTY_FUNCTION__.2583+0x68>
    1fd4:	48 89 c7             	mov    %rax,%rdi
    1fd7:	b8 00 00 00 00       	mov    $0x0,%eax
    1fdc:	e8 9f f2 ff ff       	call   1280 <fprintf@plt>
    1fe1:	48 8b 55 e0          	mov    -0x20(%rbp),%rdx
    1fe5:	48 8b 45 f8          	mov    -0x8(%rbp),%rax
    1fe9:	48 89 d6             	mov    %rdx,%rsi
    1fec:	48 89 c7             	mov    %rax,%rdi
    1fef:	e8 ac fe ff ff       	call   1ea0 <printHeader>
    1ff4:	48 8b 45 f8          	mov    -0x8(%rbp),%rax
    1ff8:	48 89 c7             	mov    %rax,%rdi
    1ffb:	e8 3f fe ff ff       	call   1e3f <closeLog>
    2000:	90                   	nop
    2001:	c9                   	leave  
    2002:	c3                   	ret    

0000000000002003 <saveState>:
    2003:	f3 0f 1e fa          	endbr64 
    2007:	55                   	push   %rbp
    2008:	48 89 e5             	mov    %rsp,%rbp
    200b:	48 83 ec 20          	sub    $0x20,%rsp
    200f:	48 89 7d e8          	mov    %rdi,-0x18(%rbp)
    2013:	48 89 75 e0          	mov    %rsi,-0x20(%rbp)
    2017:	48 8b 45 e8          	mov    -0x18(%rbp),%rax
    201b:	48 8d 35 3b 12 00 00 	lea    0x123b(%rip),%rsi        # 325d <__PRETTY_FUNCTION__.2583+0x9d>
    2022:	48 89 c7             	mov    %rax,%rdi
    2025:	e8 72 fd ff ff       	call   1d9c <openLog>
    202a:	48 89 45 f8          	mov    %rax,-0x8(%rbp)
    202e:	c7 45 f0 00 00 00 00 	movl   $0x0,-0x10(%rbp)
    2035:	eb 29                	jmp    2060 <saveState+0x5d>
    2037:	48 8b 45 e0          	mov    -0x20(%rbp),%rax
    203b:	8b 55 f0             	mov    -0x10(%rbp),%edx
    203e:	48 63 d2             	movslq %edx,%rdx
    2041:	8b 14 90             	mov    (%rax,%rdx,4),%edx
    2044:	48 8b 45 f8          	mov    -0x8(%rbp),%rax
    2048:	48 8d 35 10 12 00 00 	lea    0x1210(%rip),%rsi        # 325f <__PRETTY_FUNCTION__.2583+0x9f>
    204f:	48 89 c7             	mov    %rax,%rdi
    2052:	b8 00 00 00 00       	mov    $0x0,%eax
    2057:	e8 24 f2 ff ff       	call   1280 <fprintf@plt>
    205c:	83 45 f0 01          	addl   $0x1,-0x10(%rbp)
    2060:	48 8b 45 e0          	mov    -0x20(%rbp),%rax
    2064:	8b 40 38             	mov    0x38(%rax),%eax
    2067:	39 45 f0             	cmp    %eax,-0x10(%rbp)
    206a:	7c cb                	jl     2037 <saveState+0x34>
    206c:	48 8b 45 f8          	mov    -0x8(%rbp),%rax
    2070:	48 89 c6             	mov    %rax,%rsi
    2073:	bf 20 00 00 00       	mov    $0x20,%edi
    2078:	e8 f3 f1 ff ff       	call   1270 <fputc@plt>
    207d:	c7 45 f4 00 00 00 00 	movl   $0x0,-0xc(%rbp)
    2084:	eb 2e                	jmp    20b4 <saveState+0xb1>
    2086:	48 8b 45 e0          	mov    -0x20(%rbp),%rax
    208a:	8b 55 f4             	mov    -0xc(%rbp),%edx
    208d:	48 63 d2             	movslq %edx,%rdx
    2090:	48 83 c2 08          	add    $0x8,%rdx
    2094:	8b 54 90 08          	mov    0x8(%rax,%rdx,4),%edx
    2098:	48 8b 45 f8          	mov    -0x8(%rbp),%rax
    209c:	48 8d 35 bc 11 00 00 	lea    0x11bc(%rip),%rsi        # 325f <__PRETTY_FUNCTION__.2583+0x9f>
    20a3:	48 89 c7             	mov    %rax,%rdi
    20a6:	b8 00 00 00 00       	mov    $0x0,%eax
    20ab:	e8 d0 f1 ff ff       	call   1280 <fprintf@plt>
    20b0:	83 45 f4 01          	addl   $0x1,-0xc(%rbp)
    20b4:	48 8b 45 e0          	mov    -0x20(%rbp),%rax
    20b8:	8b 40 3c             	mov    0x3c(%rax),%eax
    20bb:	39 45 f4             	cmp    %eax,-0xc(%rbp)
    20be:	7c c6                	jl     2086 <saveState+0x83>
    20c0:	48 8b 45 f8          	mov    -0x8(%rbp),%rax
    20c4:	48 89 c6             	mov    %rax,%rsi
    20c7:	bf 20 00 00 00       	mov    $0x20,%edi
    20cc:	e8 9f f1 ff ff       	call   1270 <fputc@plt>
    20d1:	48 8b 45 e0          	mov    -0x20(%rbp),%rax
    20d5:	8b 50 34             	mov    0x34(%rax),%edx
    20d8:	48 8b 45 f8          	mov    -0x8(%rbp),%rax
    20dc:	48 8d 35 7c 11 00 00 	lea    0x117c(%rip),%rsi        # 325f <__PRETTY_FUNCTION__.2583+0x9f>
    20e3:	48 89 c7             	mov    %rax,%rdi
    20e6:	b8 00 00 00 00       	mov    $0x0,%eax
    20eb:	e8 90 f1 ff ff       	call   1280 <fprintf@plt>
    20f0:	48 8b 45 f8          	mov    -0x8(%rbp),%rax
    20f4:	48 89 c6             	mov    %rax,%rsi
    20f7:	bf 0a 00 00 00       	mov    $0xa,%edi
    20fc:	e8 6f f1 ff ff       	call   1270 <fputc@plt>
    2101:	48 8b 45 f8          	mov    -0x8(%rbp),%rax
    2105:	48 89 c7             	mov    %rax,%rdi
    2108:	e8 32 fd ff ff       	call   1e3f <closeLog>
    210d:	90                   	nop
    210e:	c9                   	leave  
    210f:	c3                   	ret    

0000000000002110 <__libc_csu_init>:
    2110:	f3 0f 1e fa          	endbr64 
    2114:	41 57                	push   %r15
    2116:	4c 8d 3d db 2b 00 00 	lea    0x2bdb(%rip),%r15        # 4cf8 <__frame_dummy_init_array_entry>
    211d:	41 56                	push   %r14
    211f:	49 89 d6             	mov    %rdx,%r14
    2122:	41 55                	push   %r13
    2124:	49 89 f5             	mov    %rsi,%r13
    2127:	41 54                	push   %r12
    2129:	41 89 fc             	mov    %edi,%r12d
    212c:	55                   	push   %rbp
    212d:	48 8d 2d cc 2b 00 00 	lea    0x2bcc(%rip),%rbp        # 4d00 <__do_global_dtors_aux_fini_array_entry>
    2134:	53                   	push   %rbx
    2135:	4c 29 fd             	sub    %r15,%rbp
    2138:	48 83 ec 08          	sub    $0x8,%rsp
    213c:	e8 bf ee ff ff       	call   1000 <_init>
    2141:	48 c1 fd 03          	sar    $0x3,%rbp
    2145:	74 1f                	je     2166 <__libc_csu_init+0x56>
    2147:	31 db                	xor    %ebx,%ebx
    2149:	0f 1f 80 00 00 00 00 	nopl   0x0(%rax)
    2150:	4c 89 f2             	mov    %r14,%rdx
    2153:	4c 89 ee             	mov    %r13,%rsi
    2156:	44 89 e7             	mov    %r12d,%edi
    2159:	41 ff 14 df          	call   *(%r15,%rbx,8)
    215d:	48 83 c3 01          	add    $0x1,%rbx
    2161:	48 39 dd             	cmp    %rbx,%rbp
    2164:	75 ea                	jne    2150 <__libc_csu_init+0x40>
    2166:	48 83 c4 08          	add    $0x8,%rsp
    216a:	5b                   	pop    %rbx
    216b:	5d                   	pop    %rbp
    216c:	41 5c                	pop    %r12
    216e:	41 5d                	pop    %r13
    2170:	41 5e                	pop    %r14
    2172:	41 5f                	pop    %r15
    2174:	c3                   	ret    
    2175:	66 66 2e 0f 1f 84 00 	data16 cs nopw 0x0(%rax,%rax,1)
    217c:	00 00 00 00 

0000000000002180 <__libc_csu_fini>:
    2180:	f3 0f 1e fa          	endbr64 
    2184:	c3                   	ret    

Disassembly of section .fini:

0000000000002188 <_fini>:
    2188:	f3 0f 1e fa          	endbr64 
    218c:	48 83 ec 08          	sub    $0x8,%rsp
    2190:	48 83 c4 08          	add    $0x8,%rsp
    2194:	c3                   	ret    
